target datalayout = "e-m:e-p270:32:32-p271:32:32-p272:64:64-i64:64-i128:128-f80:128-n8:16:32:64-S128"
target triple = "x86_64-pc-linux-gnu"

%union.imath_half_uif = type { i32 }

; Function Attrs: inlinehint nounwind uwtable
define internal zeroext i16 @imath_float_to_half(float noundef %0) #4 {
  %2 = alloca i16, align 2
  %3 = alloca float, align 4
  %4 = alloca %union.imath_half_uif, align 4
  %5 = alloca i16, align 2
  %6 = alloca i32, align 4
  %7 = alloca i32, align 4
  %8 = alloca i32, align 4
  %9 = alloca i32, align 4
  %10 = alloca i32, align 4
  %11 = alloca i32, align 4
  store float %0, ptr %3, align 4, !tbaa !152
  call void @llvm.lifetime.start.p0(i64 4, ptr %4) #14
  call void @llvm.lifetime.start.p0(i64 2, ptr %5) #14
  call void @llvm.lifetime.start.p0(i64 4, ptr %6) #14
  call void @llvm.lifetime.start.p0(i64 4, ptr %7) #14
  call void @llvm.lifetime.start.p0(i64 4, ptr %8) #14
  call void @llvm.lifetime.start.p0(i64 4, ptr %9) #14
  call void @llvm.lifetime.start.p0(i64 4, ptr %10) #14
  %12 = load float, ptr %3, align 4, !tbaa !152
  store float %12, ptr %4, align 4, !tbaa !109
  %13 = load i32, ptr %4, align 4, !tbaa !109
  %14 = and i32 %13, 2147483647
  store i32 %14, ptr %8, align 4, !tbaa !8
  %15 = load i32, ptr %4, align 4, !tbaa !109
  %16 = lshr i32 %15, 16
  %17 = and i32 %16, 32768
  %18 = trunc i32 %17 to i16
  store i16 %18, ptr %5, align 2, !tbaa !153
  %19 = load i32, ptr %8, align 4, !tbaa !8
  %20 = icmp uge i32 %19, 947912704
  br i1 %20, label %21, label %83

21:                                               ; preds = %1
  %22 = load i32, ptr %8, align 4, !tbaa !8
  %23 = icmp uge i32 %22, 2139095040
  %24 = zext i1 %23 to i32
  %25 = sext i32 %24 to i64
  %26 = call i64 @llvm.expect.i64(i64 %25, i64 0)
  %27 = icmp ne i64 %26, 0
  br i1 %27, label %28, label %54

28:                                               ; preds = %21
  %29 = load i16, ptr %5, align 2, !tbaa !153
  %30 = zext i16 %29 to i32
  %31 = or i32 %30, 31744
  %32 = trunc i32 %31 to i16
  store i16 %32, ptr %5, align 2, !tbaa !153
  %33 = load i32, ptr %8, align 4, !tbaa !8
  %34 = icmp eq i32 %33, 2139095040
  br i1 %34, label %35, label %37

35:                                               ; preds = %28
  %36 = load i16, ptr %5, align 2, !tbaa !153
  store i16 %36, ptr %2, align 2
  store i32 1, ptr %11, align 4
  br label %122

37:                                               ; preds = %28
  %38 = load i32, ptr %8, align 4, !tbaa !8
  %39 = and i32 %38, 8388607
  %40 = lshr i32 %39, 13
  store i32 %40, ptr %7, align 4, !tbaa !8
  %41 = load i16, ptr %5, align 2, !tbaa !153
  %42 = zext i16 %41 to i32
  %43 = load i32, ptr %7, align 4, !tbaa !8
  %44 = trunc i32 %43 to i16
  %45 = zext i16 %44 to i32
  %46 = or i32 %42, %45
  %47 = load i32, ptr %7, align 4, !tbaa !8
  %48 = icmp eq i32 %47, 0
  %49 = zext i1 %48 to i32
  %50 = trunc i32 %49 to i16
  %51 = zext i16 %50 to i32
  %52 = or i32 %46, %51
  %53 = trunc i32 %52 to i16
  store i16 %53, ptr %2, align 2
  store i32 1, ptr %11, align 4
  br label %122

54:                                               ; preds = %21
  %55 = load i32, ptr %8, align 4, !tbaa !8
  %56 = icmp ugt i32 %55, 1199566847
  %57 = zext i1 %56 to i32
  %58 = sext i32 %57 to i64
  %59 = call i64 @llvm.expect.i64(i64 %58, i64 0)
  %60 = icmp ne i64 %59, 0
  br i1 %60, label %61, label %66

61:                                               ; preds = %54
  %62 = load i16, ptr %5, align 2, !tbaa !153
  %63 = zext i16 %62 to i32
  %64 = or i32 %63, 31744
  %65 = trunc i32 %64 to i16
  store i16 %65, ptr %2, align 2
  store i32 1, ptr %11, align 4
  br label %122

66:                                               ; preds = %54
  %67 = load i32, ptr %8, align 4, !tbaa !8
  %68 = sub i32 %67, 939524096
  store i32 %68, ptr %8, align 4, !tbaa !8
  %69 = load i32, ptr %8, align 4, !tbaa !8
  %70 = add i32 %69, 4095
  %71 = load i32, ptr %8, align 4, !tbaa !8
  %72 = lshr i32 %71, 13
  %73 = and i32 %72, 1
  %74 = add i32 %70, %73
  %75 = lshr i32 %74, 13
  store i32 %75, ptr %8, align 4, !tbaa !8
  %76 = load i16, ptr %5, align 2, !tbaa !153
  %77 = zext i16 %76 to i32
  %78 = load i32, ptr %8, align 4, !tbaa !8
  %79 = trunc i32 %78 to i16
  %80 = zext i16 %79 to i32
  %81 = or i32 %77, %80
  %82 = trunc i32 %81 to i16
  store i16 %82, ptr %2, align 2
  store i32 1, ptr %11, align 4
  br label %122

83:                                               ; preds = %1
  %84 = load i32, ptr %8, align 4, !tbaa !8
  %85 = icmp ult i32 %84, 855638017
  br i1 %85, label %86, label %88

86:                                               ; preds = %83
  %87 = load i16, ptr %5, align 2, !tbaa !153
  store i16 %87, ptr %2, align 2
  store i32 1, ptr %11, align 4
  br label %122

88:                                               ; preds = %83
  %89 = load i32, ptr %8, align 4, !tbaa !8
  %90 = lshr i32 %89, 23
  store i32 %90, ptr %6, align 4, !tbaa !8
  %91 = load i32, ptr %6, align 4, !tbaa !8
  %92 = sub i32 126, %91
  store i32 %92, ptr %10, align 4, !tbaa !8
  %93 = load i32, ptr %8, align 4, !tbaa !8
  %94 = and i32 %93, 8388607
  %95 = or i32 8388608, %94
  store i32 %95, ptr %7, align 4, !tbaa !8
  %96 = load i32, ptr %7, align 4, !tbaa !8
  %97 = load i32, ptr %10, align 4, !tbaa !8
  %98 = sub i32 32, %97
  %99 = shl i32 %96, %98
  store i32 %99, ptr %9, align 4, !tbaa !8
  %100 = load i32, ptr %7, align 4, !tbaa !8
  %101 = load i32, ptr %10, align 4, !tbaa !8
  %102 = lshr i32 %100, %101
  %103 = load i16, ptr %5, align 2, !tbaa !153
  %104 = zext i16 %103 to i32
  %105 = or i32 %104, %102
  %106 = trunc i32 %105 to i16
  store i16 %106, ptr %5, align 2, !tbaa !153
  %107 = load i32, ptr %9, align 4, !tbaa !8
  %108 = icmp ugt i32 %107, -2147483648
  br i1 %108, label %117, label %109

109:                                              ; preds = %88
  %110 = load i32, ptr %9, align 4, !tbaa !8
  %111 = icmp eq i32 %110, -2147483648
  br i1 %111, label %112, label %120

112:                                              ; preds = %109
  %113 = load i16, ptr %5, align 2, !tbaa !153
  %114 = zext i16 %113 to i32
  %115 = and i32 %114, 1
  %116 = icmp ne i32 %115, 0
  br i1 %116, label %117, label %120

117:                                              ; preds = %112, %88
  %118 = load i16, ptr %5, align 2, !tbaa !153
  %119 = add i16 %118, 1
  store i16 %119, ptr %5, align 2, !tbaa !153
  br label %120

120:                                              ; preds = %117, %112, %109
  %121 = load i16, ptr %5, align 2, !tbaa !153
  store i16 %121, ptr %2, align 2
  store i32 1, ptr %11, align 4
  br label %122

122:                                              ; preds = %120, %86, %66, %61, %37, %35
  call void @llvm.lifetime.end.p0(i64 4, ptr %10) #14
  call void @llvm.lifetime.end.p0(i64 4, ptr %9) #14
  call void @llvm.lifetime.end.p0(i64 4, ptr %8) #14
  call void @llvm.lifetime.end.p0(i64 4, ptr %7) #14
  call void @llvm.lifetime.end.p0(i64 4, ptr %6) #14
  call void @llvm.lifetime.end.p0(i64 2, ptr %5) #14
  call void @llvm.lifetime.end.p0(i64 4, ptr %4) #14
  %123 = load i16, ptr %2, align 2
  ret i16 %123
}

; Function Attrs: inlinehint nounwind uwtable
define internal zeroext i16 @float_to_half(float noundef %0) #4 {
  %2 = alloca float, align 4
  store float %0, ptr %2, align 4, !tbaa !152
  %3 = load float, ptr %2, align 4, !tbaa !152
  %4 = call zeroext i16 @imath_float_to_half(float noundef %3)
  ret i16 %4
}

; Function Attrs: nounwind uwtable
define internal void @convertFloatToHalf64_scalar(ptr noundef %0, ptr noundef %1) #0 {
  %3 = alloca ptr, align 8
  %4 = alloca ptr, align 8
  %5 = alloca i32, align 4
  store ptr %0, ptr %3, align 8, !tbaa !103
  store ptr %1, ptr %4, align 8, !tbaa !150
  call void @llvm.lifetime.start.p0(i64 4, ptr %5) #14
  store i32 0, ptr %5, align 4, !tbaa !8
  br label %6

6:                                                ; preds = %21, %2
  %7 = load i32, ptr %5, align 4, !tbaa !8
  %8 = icmp slt i32 %7, 64
  br i1 %8, label %10, label %9

9:                                                ; preds = %6
  call void @llvm.lifetime.end.p0(i64 4, ptr %5) #14
  br label %24

10:                                               ; preds = %6
  %11 = load ptr, ptr %4, align 8, !tbaa !150
  %12 = load i32, ptr %5, align 4, !tbaa !8
  %13 = sext i32 %12 to i64
  %14 = getelementptr inbounds float, ptr %11, i64 %13
  %15 = load float, ptr %14, align 4, !tbaa !152
  %16 = call zeroext i16 @float_to_half(float noundef %15)
  %17 = load ptr, ptr %3, align 8, !tbaa !103
  %18 = load i32, ptr %5, align 4, !tbaa !8
  %19 = sext i32 %18 to i64
  %20 = getelementptr inbounds i16, ptr %17, i64 %19
  store i16 %16, ptr %20, align 2, !tbaa !153
  br label %21

21:                                               ; preds = %10
  %22 = load i32, ptr %5, align 4, !tbaa !8
  %23 = add nsw i32 %22, 1
  store i32 %23, ptr %5, align 4, !tbaa !8
  br label %6, !llvm.loop !154

24:                                               ; preds = %9
  ret void
}